target datalayout = "e-m:e-p270:32:32-p271:32:32-p272:64:64-i64:64-i128:128-f80:128-n8:16:32:64-S128"
target triple = "x86_64-pc-linux-gnu"

%struct.anon = type { i32, i32 }

; Function Attrs: nounwind uwtable
define internal void @strscan_double(i64 noundef %0, ptr noundef %1, i32 noundef %2, i32 noundef %3) #0 {
  %5 = alloca i64, align 8
  %6 = alloca ptr, align 8
  %7 = alloca i32, align 4
  %8 = alloca i32, align 4
  %9 = alloca double, align 8
  %10 = alloca i32, align 4
  %11 = alloca i64, align 8
  store i64 %0, ptr %5, align 8, !tbaa !22
  store ptr %1, ptr %6, align 8, !tbaa !11
  store i32 %2, ptr %7, align 4, !tbaa !9
  store i32 %3, ptr %8, align 4, !tbaa !9
  call void @llvm.lifetime.start.p0(i64 8, ptr %9) #5
  %12 = load i32, ptr %7, align 4, !tbaa !9
  %13 = icmp sle i32 %12, -1075
  br i1 %13, label %14, label %17

14:                                               ; preds = %4
  %15 = load i64, ptr %5, align 8, !tbaa !22
  %16 = icmp ne i64 %15, 0
  br label %17

17:                                               ; preds = %14, %4
  %18 = phi i1 [ false, %4 ], [ %16, %14 ]
  %19 = xor i1 %18, true
  %20 = xor i1 %19, true
  %21 = zext i1 %20 to i32
  %22 = sext i32 %21 to i64
  %23 = call i64 @llvm.expect.i64(i64 %22, i64 0)
  %24 = icmp ne i64 %23, 0
  br i1 %24, label %25, label %73

25:                                               ; preds = %17
  call void @llvm.lifetime.start.p0(i64 4, ptr %10) #5
  %26 = load i64, ptr %5, align 8, !tbaa !22
  %27 = call i64 @llvm.ctlz.i64(i64 %26, i1 true)
  %28 = trunc i64 %27 to i32
  %29 = xor i32 %28, 63
  store i32 %29, ptr %10, align 4, !tbaa !9
  %30 = load i32, ptr %10, align 4, !tbaa !9
  %31 = load i32, ptr %7, align 4, !tbaa !9
  %32 = add nsw i32 %30, %31
  %33 = icmp sle i32 %32, -1023
  br i1 %33, label %34, label %72

34:                                               ; preds = %25
  %35 = load i32, ptr %10, align 4, !tbaa !9
  %36 = load i32, ptr %7, align 4, !tbaa !9
  %37 = add nsw i32 %35, %36
  %38 = icmp sge i32 %37, -1075
  br i1 %38, label %39, label %72

39:                                               ; preds = %34
  call void @llvm.lifetime.start.p0(i64 8, ptr %11) #5
  %40 = load i32, ptr %7, align 4, !tbaa !9
  %41 = sub nsw i32 -1075, %40
  %42 = zext i32 %41 to i64
  %43 = shl i64 1, %42
  store i64 %43, ptr %11, align 8, !tbaa !22
  %44 = load i64, ptr %5, align 8, !tbaa !22
  %45 = load i64, ptr %11, align 8, !tbaa !22
  %46 = and i64 %44, %45
  %47 = icmp ne i64 %46, 0
  br i1 %47, label %48, label %64

48:                                               ; preds = %39
  %49 = load i64, ptr %5, align 8, !tbaa !22
  %50 = load i64, ptr %11, align 8, !tbaa !22
  %51 = load i64, ptr %11, align 8, !tbaa !22
  %52 = add i64 %50, %51
  %53 = load i64, ptr %11, align 8, !tbaa !22
  %54 = add i64 %52, %53
  %55 = sub i64 %54, 1
  %56 = and i64 %49, %55
  %57 = icmp ne i64 %56, 0
  br i1 %57, label %58, label %64

58:                                               ; preds = %48
  %59 = load i64, ptr %11, align 8, !tbaa !22
  %60 = load i64, ptr %11, align 8, !tbaa !22
  %61 = add i64 %59, %60
  %62 = load i64, ptr %5, align 8, !tbaa !22
  %63 = add i64 %62, %61
  store i64 %63, ptr %5, align 8, !tbaa !22
  br label %64

64:                                               ; preds = %58, %48, %39
  %65 = load i64, ptr %5, align 8, !tbaa !22
  %66 = load i64, ptr %11, align 8, !tbaa !22
  %67 = load i64, ptr %11, align 8, !tbaa !22
  %68 = add i64 %66, %67
  %69 = sub i64 %68, 1
  %70 = xor i64 %69, -1
  %71 = and i64 %65, %70
  store i64 %71, ptr %5, align 8, !tbaa !22
  call void @llvm.lifetime.end.p0(i64 8, ptr %11) #5
  br label %72

72:                                               ; preds = %64, %34, %25
  call void @llvm.lifetime.end.p0(i64 4, ptr %10) #5
  br label %73

73:                                               ; preds = %72, %17
  %74 = load i64, ptr %5, align 8, !tbaa !22
  %75 = sitofp i64 %74 to double
  store double %75, ptr %9, align 8, !tbaa !20
  %76 = load i32, ptr %8, align 4, !tbaa !9
  %77 = icmp ne i32 %76, 0
  br i1 %77, label %78, label %81

78:                                               ; preds = %73
  %79 = load double, ptr %9, align 8, !tbaa !20
  %80 = fneg double %79
  store double %80, ptr %9, align 8, !tbaa !20
  br label %81

81:                                               ; preds = %78, %73
  %82 = load i32, ptr %7, align 4, !tbaa !9
  %83 = icmp ne i32 %82, 0
  br i1 %83, label %84, label %88

84:                                               ; preds = %81
  %85 = load double, ptr %9, align 8, !tbaa !20
  %86 = load i32, ptr %7, align 4, !tbaa !9
  %87 = call double @ldexp(double noundef %85, i32 noundef %86) #5, !tbaa !9
  store double %87, ptr %9, align 8, !tbaa !20
  br label %88

88:                                               ; preds = %84, %81
  %89 = load double, ptr %9, align 8, !tbaa !20
  %90 = load ptr, ptr %6, align 8, !tbaa !11
  store double %89, ptr %90, align 8, !tbaa !13
  call void @llvm.lifetime.end.p0(i64 8, ptr %9) #5
  ret void
}

; Function Attrs: nounwind uwtable
define internal i32 @strscan_hex(ptr noundef %0, ptr noundef %1, i32 noundef %2, i32 noundef %3, i32 noundef %4, i32 noundef %5, i32 noundef %6) #0 {
  %8 = alloca i32, align 4
  %9 = alloca ptr, align 8
  %10 = alloca ptr, align 8
  %11 = alloca i32, align 4
  %12 = alloca i32, align 4
  %13 = alloca i32, align 4
  %14 = alloca i32, align 4
  %15 = alloca i32, align 4
  %16 = alloca i64, align 8
  %17 = alloca i32, align 4
  %18 = alloca i32, align 4
  %19 = alloca i32, align 4
  store ptr %0, ptr %9, align 8, !tbaa !4
  store ptr %1, ptr %10, align 8, !tbaa !11
  store i32 %2, ptr %11, align 4, !tbaa !9
  store i32 %3, ptr %12, align 4, !tbaa !9
  store i32 %4, ptr %13, align 4, !tbaa !9
  store i32 %5, ptr %14, align 4, !tbaa !9
  store i32 %6, ptr %15, align 4, !tbaa !9
  call void @llvm.lifetime.start.p0(i64 8, ptr %16) #5
  store i64 0, ptr %16, align 8, !tbaa !22
  call void @llvm.lifetime.start.p0(i64 4, ptr %17) #5
  %20 = load i32, ptr %15, align 4, !tbaa !9
  %21 = icmp ugt i32 %20, 16
  br i1 %21, label %22, label %23

22:                                               ; preds = %7
  br label %25

23:                                               ; preds = %7
  %24 = load i32, ptr %15, align 4, !tbaa !9
  br label %25

25:                                               ; preds = %23, %22
  %26 = phi i32 [ 16, %22 ], [ %24, %23 ]
  store i32 %26, ptr %17, align 4, !tbaa !9
  br label %27

27:                                               ; preds = %58, %25
  %28 = load i32, ptr %17, align 4, !tbaa !9
  %29 = icmp ne i32 %28, 0
  br i1 %29, label %30, label %63

30:                                               ; preds = %27
  call void @llvm.lifetime.start.p0(i64 4, ptr %18) #5
  %31 = load ptr, ptr %9, align 8, !tbaa !4
  %32 = load i8, ptr %31, align 1, !tbaa !13
  %33 = zext i8 %32 to i32
  %34 = icmp ne i32 %33, 46
  br i1 %34, label %35, label %39

35:                                               ; preds = %30
  %36 = load ptr, ptr %9, align 8, !tbaa !4
  %37 = load i8, ptr %36, align 1, !tbaa !13
  %38 = zext i8 %37 to i32
  br label %44

39:                                               ; preds = %30
  %40 = load ptr, ptr %9, align 8, !tbaa !4
  %41 = getelementptr inbounds nuw i8, ptr %40, i32 1
  store ptr %41, ptr %9, align 8, !tbaa !4
  %42 = load i8, ptr %41, align 1, !tbaa !13
  %43 = zext i8 %42 to i32
  br label %44

44:                                               ; preds = %39, %35
  %45 = phi i32 [ %38, %35 ], [ %43, %39 ]
  store i32 %45, ptr %18, align 4, !tbaa !9
  %46 = load i32, ptr %18, align 4, !tbaa !9
  %47 = icmp ugt i32 %46, 57
  br i1 %47, label %48, label %51

48:                                               ; preds = %44
  %49 = load i32, ptr %18, align 4, !tbaa !9
  %50 = add i32 %49, 9
  store i32 %50, ptr %18, align 4, !tbaa !9
  br label %51

51:                                               ; preds = %48, %44
  %52 = load i64, ptr %16, align 8, !tbaa !22
  %53 = shl i64 %52, 4
  %54 = load i32, ptr %18, align 4, !tbaa !9
  %55 = and i32 %54, 15
  %56 = zext i32 %55 to i64
  %57 = add i64 %53, %56
  store i64 %57, ptr %16, align 8, !tbaa !22
  call void @llvm.lifetime.end.p0(i64 4, ptr %18) #5
  br label %58

58:                                               ; preds = %51
  %59 = load i32, ptr %17, align 4, !tbaa !9
  %60 = add i32 %59, -1
  store i32 %60, ptr %17, align 4, !tbaa !9
  %61 = load ptr, ptr %9, align 8, !tbaa !4
  %62 = getelementptr inbounds nuw i8, ptr %61, i32 1
  store ptr %62, ptr %9, align 8, !tbaa !4
  br label %27, !llvm.loop !25

63:                                               ; preds = %27
  store i32 16, ptr %17, align 4, !tbaa !9
  br label %64

64:                                               ; preds = %91, %63
  %65 = load i32, ptr %17, align 4, !tbaa !9
  %66 = load i32, ptr %15, align 4, !tbaa !9
  %67 = icmp ult i32 %65, %66
  br i1 %67, label %68, label %96

68:                                               ; preds = %64
  %69 = load ptr, ptr %9, align 8, !tbaa !4
  %70 = load i8, ptr %69, align 1, !tbaa !13
  %71 = zext i8 %70 to i32
  %72 = icmp ne i32 %71, 46
  br i1 %72, label %73, label %77

73:                                               ; preds = %68
  %74 = load ptr, ptr %9, align 8, !tbaa !4
  %75 = load i8, ptr %74, align 1, !tbaa !13
  %76 = zext i8 %75 to i32
  br label %82

77:                                               ; preds = %68
  %78 = load ptr, ptr %9, align 8, !tbaa !4
  %79 = getelementptr inbounds nuw i8, ptr %78, i32 1
  store ptr %79, ptr %9, align 8, !tbaa !4
  %80 = load i8, ptr %79, align 1, !tbaa !13
  %81 = zext i8 %80 to i32
  br label %82

82:                                               ; preds = %77, %73
  %83 = phi i32 [ %76, %73 ], [ %81, %77 ]
  %84 = icmp ne i32 %83, 48
  %85 = zext i1 %84 to i32
  %86 = sext i32 %85 to i64
  %87 = load i64, ptr %16, align 8, !tbaa !22
  %88 = or i64 %87, %86
  store i64 %88, ptr %16, align 8, !tbaa !22
  %89 = load i32, ptr %13, align 4, !tbaa !9
  %90 = add nsw i32 %89, 4
  store i32 %90, ptr %13, align 4, !tbaa !9
  br label %91

91:                                               ; preds = %82
  %92 = load i32, ptr %17, align 4, !tbaa !9
  %93 = add i32 %92, 1
  store i32 %93, ptr %17, align 4, !tbaa !9
  %94 = load ptr, ptr %9, align 8, !tbaa !4
  %95 = getelementptr inbounds nuw i8, ptr %94, i32 1
  store ptr %95, ptr %9, align 8, !tbaa !4
  br label %64, !llvm.loop !26

96:                                               ; preds = %64
  %97 = load i32, ptr %11, align 4, !tbaa !9
  switch i32 %97, label %171 [
    i32 3, label %98
    i32 4, label %135
    i32 5, label %154
    i32 6, label %154
  ]

98:                                               ; preds = %96
  %99 = load i32, ptr %12, align 4, !tbaa !9
  %100 = and i32 %99, 2
  %101 = icmp ne i32 %100, 0
  br i1 %101, label %129, label %102

102:                                              ; preds = %98
  %103 = load i64, ptr %16, align 8, !tbaa !22
  %104 = load i32, ptr %14, align 4, !tbaa !9
  %105 = add i32 -2147483648, %104
  %106 = zext i32 %105 to i64
  %107 = icmp ult i64 %103, %106
  br i1 %107, label %108, label %129

108:                                              ; preds = %102
  %109 = load i64, ptr %16, align 8, !tbaa !22
  %110 = icmp eq i64 %109, 0
  br i1 %110, label %111, label %114

111:                                              ; preds = %108
  %112 = load i32, ptr %14, align 4, !tbaa !9
  %113 = icmp ne i32 %112, 0
  br i1 %113, label %129, label %114

114:                                              ; preds = %111, %108
  %115 = load i32, ptr %14, align 4, !tbaa !9
  %116 = icmp ne i32 %115, 0
  br i1 %116, label %117, label %122

117:                                              ; preds = %114
  %118 = load i64, ptr %16, align 8, !tbaa !22
  %119 = xor i64 %118, -1
  %120 = add i64 %119, 1
  %121 = trunc i64 %120 to i32
  br label %125

122:                                              ; preds = %114
  %123 = load i64, ptr %16, align 8, !tbaa !22
  %124 = trunc i64 %123 to i32
  br label %125

125:                                              ; preds = %122, %117
  %126 = phi i32 [ %121, %117 ], [ %124, %122 ]
  %127 = load ptr, ptr %10, align 8, !tbaa !11
  %128 = getelementptr inbounds nuw %struct.anon, ptr %127, i32 0, i32 0
  store i32 %126, ptr %128, align 8, !tbaa !13
  store i32 3, ptr %8, align 4
  store i32 1, ptr %19, align 4
  br label %190

129:                                              ; preds = %111, %102, %98
  %130 = load i32, ptr %12, align 4, !tbaa !9
  %131 = and i32 %130, 16
  %132 = icmp ne i32 %131, 0
  br i1 %132, label %134, label %133

133:                                              ; preds = %129
  store i32 1, ptr %11, align 4, !tbaa !9
  br label %172

134:                                              ; preds = %129
  br label %135

135:                                              ; preds = %96, %134
  %136 = load i32, ptr %15, align 4, !tbaa !9
  %137 = icmp ugt i32 %136, 8
  br i1 %137, label %138, label %139

138:                                              ; preds = %135
  store i32 0, ptr %8, align 4
  store i32 1, ptr %19, align 4
  br label %190

139:                                              ; preds = %135
  %140 = load i32, ptr %14, align 4, !tbaa !9
  %141 = icmp ne i32 %140, 0
  br i1 %141, label %142, label %147

142:                                              ; preds = %139
  %143 = load i64, ptr %16, align 8, !tbaa !22
  %144 = xor i64 %143, -1
  %145 = add i64 %144, 1
  %146 = trunc i64 %145 to i32
  br label %150

147:                                              ; preds = %139
  %148 = load i64, ptr %16, align 8, !tbaa !22
  %149 = trunc i64 %148 to i32
  br label %150

150:                                              ; preds = %147, %142
  %151 = phi i32 [ %146, %142 ], [ %149, %147 ]
  %152 = load ptr, ptr %10, align 8, !tbaa !11
  %153 = getelementptr inbounds nuw %struct.anon, ptr %152, i32 0, i32 0
  store i32 %151, ptr %153, align 8, !tbaa !13
  store i32 4, ptr %8, align 4
  store i32 1, ptr %19, align 4
  br label %190

154:                                              ; preds = %96, %96
  %155 = load i32, ptr %15, align 4, !tbaa !9
  %156 = icmp ugt i32 %155, 16
  br i1 %156, label %157, label %158

157:                                              ; preds = %154
  store i32 0, ptr %8, align 4
  store i32 1, ptr %19, align 4
  br label %190

158:                                              ; preds = %154
  %159 = load i32, ptr %14, align 4, !tbaa !9
  %160 = icmp ne i32 %159, 0
  br i1 %160, label %161, label %165

161:                                              ; preds = %158
  %162 = load i64, ptr %16, align 8, !tbaa !22
  %163 = xor i64 %162, -1
  %164 = add i64 %163, 1
  br label %167

165:                                              ; preds = %158
  %166 = load i64, ptr %16, align 8, !tbaa !22
  br label %167

167:                                              ; preds = %165, %161
  %168 = phi i64 [ %164, %161 ], [ %166, %165 ]
  %169 = load ptr, ptr %10, align 8, !tbaa !11
  store i64 %168, ptr %169, align 8, !tbaa !13
  %170 = load i32, ptr %11, align 4, !tbaa !9
  store i32 %170, ptr %8, align 4
  store i32 1, ptr %19, align 4
  br label %190

171:                                              ; preds = %96
  br label %172

172:                                              ; preds = %171, %133
  %173 = load i64, ptr %16, align 8, !tbaa !22
  %174 = and i64 %173, -4611686018427387904
  %175 = icmp ne i64 %174, 0
  br i1 %175, label %176, label %184

176:                                              ; preds = %172
  %177 = load i64, ptr %16, align 8, !tbaa !22
  %178 = lshr i64 %177, 2
  %179 = load i64, ptr %16, align 8, !tbaa !22
  %180 = and i64 %179, 3
  %181 = or i64 %178, %180
  store i64 %181, ptr %16, align 8, !tbaa !22
  %182 = load i32, ptr %13, align 4, !tbaa !9
  %183 = add nsw i32 %182, 2
  store i32 %183, ptr %13, align 4, !tbaa !9
  br label %184

184:                                              ; preds = %176, %172
  %185 = load i64, ptr %16, align 8, !tbaa !22
  %186 = load ptr, ptr %10, align 8, !tbaa !11
  %187 = load i32, ptr %13, align 4, !tbaa !9
  %188 = load i32, ptr %14, align 4, !tbaa !9
  call void @strscan_double(i64 noundef %185, ptr noundef %186, i32 noundef %187, i32 noundef %188)
  %189 = load i32, ptr %11, align 4, !tbaa !9
  store i32 %189, ptr %8, align 4
  store i32 1, ptr %19, align 4
  br label %190

190:                                              ; preds = %184, %167, %157, %150, %138, %125
  call void @llvm.lifetime.end.p0(i64 4, ptr %17) #5
  call void @llvm.lifetime.end.p0(i64 8, ptr %16) #5
  %191 = load i32, ptr %8, align 4
  ret i32 %191
}