; Function Attrs: nofree nounwind uwtable
define internal fastcc noundef i32 @strscan_hex(ptr noundef readonly captures(none) %0, ptr noundef writeonly captures(none) %1, i32 noundef %2, i32 noundef %3, i32 noundef %4, i32 noundef range(i32 0, 2) %5, i32 noundef %6) unnamed_addr #0 {
  %8 = icmp ugt i32 %6, 16
  %.not79 = icmp eq i32 %6, 0
  br i1 %.not79, label %._crit_edge, label %.lr.ph.preheader

.lr.ph.preheader:                                 ; preds = %7
  %9 = tail call i32 @llvm.umin.i32(i32 %6, i32 16)
  br label %.lr.ph

.preheader:                                       ; preds = %16
  br i1 %8, label %.lr.ph88.preheader, label %._crit_edge

.lr.ph88.preheader:                               ; preds = %.preheader
  %10 = shl i32 %6, 2
  %11 = add i32 %4, %10
  br label %.lr.ph88

.lr.ph:                                           ; preds = %.lr.ph.preheader, %16
  %.05382 = phi i32 [ %24, %16 ], [ %9, %.lr.ph.preheader ]
  %.05481 = phi i64 [ %23, %16 ], [ 0, %.lr.ph.preheader ]
  %.05780 = phi ptr [ %25, %16 ], [ %0, %.lr.ph.preheader ]
  %12 = load i8, ptr %.05780, align 1, !tbaa !4
  %.not74 = icmp eq i8 %12, 46
  br i1 %.not74, label %13, label %16

13:                                               ; preds = %.lr.ph
  %14 = getelementptr inbounds nuw i8, ptr %.05780, i64 1
  %15 = load i8, ptr %14, align 1, !tbaa !4
  br label %16

16:                                               ; preds = %.lr.ph, %13
  %.158 = phi ptr [ %14, %13 ], [ %.05780, %.lr.ph ]
  %.in75 = phi i8 [ %15, %13 ], [ %12, %.lr.ph ]
  %17 = zext i8 %.in75 to i32
  %18 = icmp ugt i8 %.in75, 57
  %19 = add nuw nsw i32 %17, 9
  %spec.select = select i1 %18, i32 %19, i32 %17
  %20 = shl i64 %.05481, 4
  %21 = and i32 %spec.select, 15
  %22 = zext nneg i32 %21 to i64
  %23 = or disjoint i64 %20, %22
  %24 = add nsw i32 %.05382, -1
  %25 = getelementptr inbounds nuw i8, ptr %.158, i64 1
  %.not = icmp eq i32 %24, 0
  br i1 %.not, label %.preheader, label %.lr.ph, !llvm.loop !15

.lr.ph88:                                         ; preds = %.lr.ph88.preheader, %30
  %.187 = phi i32 [ %34, %30 ], [ 16, %.lr.ph88.preheader ]
  %.15586 = phi i64 [ %33, %30 ], [ %23, %.lr.ph88.preheader ]
  %.25985 = phi ptr [ %35, %30 ], [ %25, %.lr.ph88.preheader ]
  %26 = load i8, ptr %.25985, align 1, !tbaa !4
  %.not73 = icmp eq i8 %26, 46
  br i1 %.not73, label %27, label %30

27:                                               ; preds = %.lr.ph88
  %28 = getelementptr inbounds nuw i8, ptr %.25985, i64 1
  %29 = load i8, ptr %28, align 1, !tbaa !4
  br label %30

30:                                               ; preds = %.lr.ph88, %27
  %.3 = phi ptr [ %28, %27 ], [ %.25985, %.lr.ph88 ]
  %.in = phi i8 [ %29, %27 ], [ %26, %.lr.ph88 ]
  %31 = icmp ne i8 %.in, 48
  %32 = zext i1 %31 to i64
  %33 = or i64 %.15586, %32
  %34 = add nuw i32 %.187, 1
  %35 = getelementptr inbounds nuw i8, ptr %.3, i64 1
  %exitcond.not = icmp eq i32 %34, %6
  br i1 %exitcond.not, label %._crit_edge.loopexit, label %.lr.ph88, !llvm.loop !16

._crit_edge.loopexit:                             ; preds = %30
  %36 = add i32 %11, -64
  br label %._crit_edge

._crit_edge:                                      ; preds = %7, %._crit_edge.loopexit, %.preheader
  %.060.lcssa = phi i32 [ %4, %.preheader ], [ %36, %._crit_edge.loopexit ], [ %4, %7 ]
  %.155.lcssa = phi i64 [ %23, %.preheader ], [ %33, %._crit_edge.loopexit ], [ 0, %7 ]
  switch i32 %2, label %61 [
    i32 3, label %37
    i32 4, label %51
    i32 5, label %57
    i32 6, label %57
  ]

37:                                               ; preds = %._crit_edge
  %38 = and i32 %3, 2
  %.not69 = icmp eq i32 %38, 0
  %39 = or disjoint i32 %5, -2147483648
  %40 = zext i32 %39 to i64
  %41 = icmp ult i64 %.155.lcssa, %40
  %or.cond78 = select i1 %.not69, i1 %41, i1 false
  br i1 %or.cond78, label %42, label %49

42:                                               ; preds = %37
  %43 = icmp eq i64 %.155.lcssa, 0
  %44 = icmp ne i32 %5, 0
  %or.cond = and i1 %44, %43
  br i1 %or.cond, label %49, label %45

45:                                               ; preds = %42
  %46 = trunc i64 %.155.lcssa to i32
  %47 = sub i32 0, %46
  %48 = select i1 %44, i32 %47, i32 %46
  store i32 %48, ptr %1, align 8, !tbaa !4
  br label %95

49:                                               ; preds = %42, %37
  %50 = and i32 %3, 16
  %.not70 = icmp eq i32 %50, 0
  br i1 %.not70, label %61, label %51

51:                                               ; preds = %49, %._crit_edge
  %52 = icmp ugt i32 %6, 8
  br i1 %52, label %95, label %53

53:                                               ; preds = %51
  %.not71 = icmp eq i32 %5, 0
  %54 = trunc i64 %.155.lcssa to i32
  %55 = sub i32 0, %54
  %56 = select i1 %.not71, i32 %54, i32 %55
  store i32 %56, ptr %1, align 8, !tbaa !4
  br label %95

57:                                               ; preds = %._crit_edge, %._crit_edge
  br i1 %8, label %95, label %58

58:                                               ; preds = %57
  %.not68 = icmp eq i32 %5, 0
  %59 = sub i64 0, %.155.lcssa
  %60 = select i1 %.not68, i64 %.155.lcssa, i64 %59
  store i64 %60, ptr %1, align 8, !tbaa !4
  br label %95

61:                                               ; preds = %49, %._crit_edge
  %.062 = phi i32 [ %2, %._crit_edge ], [ 1, %49 ]
  %.not72 = icmp ult i64 %.155.lcssa, 4611686018427387904
  %62 = lshr i64 %.155.lcssa, 2
  %63 = and i64 %.155.lcssa, 3
  %64 = or i64 %62, %63
  %65 = add nsw i32 %.060.lcssa, 2
  %.161 = select i1 %.not72, i32 %.060.lcssa, i32 %65
  %.2 = select i1 %.not72, i64 %.155.lcssa, i64 %64
  %66 = icmp slt i32 %.161, -1074
  %67 = icmp ne i64 %.2, 0
  %68 = and i1 %66, %67
  br i1 %68, label %69, label %90, !prof !7

69:                                               ; preds = %61
  %70 = tail call range(i64 0, 65) i64 @llvm.ctlz.i64(i64 %.2, i1 true)
  %71 = trunc nuw nsw i64 %70 to i32
  %72 = xor i32 %71, 63
  %73 = add nsw i32 %.161, 1075
  %74 = add nsw i32 %73, %72
  %or.cond.i = icmp ult i32 %74, 53
  br i1 %or.cond.i, label %75, label %.thread.i

75:                                               ; preds = %69
  %76 = sub nuw nsw i32 -1075, %.161
  %77 = zext nneg i32 %76 to i64
  %78 = shl nuw i64 1, %77
  %79 = and i64 %78, %.2
  %.not.i = icmp eq i64 %79, 0
  br i1 %.not.i, label %86, label %80

80:                                               ; preds = %75
  %81 = shl i64 2, %77
  %82 = add i64 %78, -1
  %83 = add i64 %82, %81
  %84 = and i64 %83, %.2
  %.not33.i = icmp eq i64 %84, 0
  %85 = select i1 %.not33.i, i64 0, i64 %81
  %spec.select.i = add i64 %85, %.2
  br label %86

86:                                               ; preds = %80, %75
  %.2.i = phi i64 [ %.2, %75 ], [ %spec.select.i, %80 ]
  %.neg.i = shl i64 -2, %77
  %87 = and i64 %.2.i, %.neg.i
  br label %.thread.i

.thread.i:                                        ; preds = %86, %69
  %.0.ph.i = phi i64 [ %.2, %69 ], [ %87, %86 ]
  %88 = sitofp i64 %.0.ph.i to double
  %.not3437.i = icmp eq i32 %5, 0
  %89 = fneg double %88
  %.02738.i = select i1 %.not3437.i, double %88, double %89
  br label %93

90:                                               ; preds = %61
  %91 = sitofp i64 %.2 to double
  %.not34.i = icmp eq i32 %5, 0
  %92 = fneg double %91
  %.027.i = select i1 %.not34.i, double %91, double %92
  %.not35.i = icmp eq i32 %.161, 0
  br i1 %.not35.i, label %strscan_double.exit, label %93

93:                                               ; preds = %90, %.thread.i
  %.02740.i = phi double [ %.02738.i, %.thread.i ], [ %.027.i, %90 ]
  %94 = tail call double @ldexp(double noundef %.02740.i, i32 noundef %.161) #7, !tbaa !17
  br label %strscan_double.exit

strscan_double.exit:                              ; preds = %90, %93
  %.128.i = phi double [ %94, %93 ], [ %.027.i, %90 ]
  store double %.128.i, ptr %1, align 8, !tbaa !4
  br label %95

95:                                               ; preds = %57, %51, %strscan_double.exit, %58, %53, %45
  %.056 = phi i32 [ %.062, %strscan_double.exit ], [ %2, %58 ], [ 4, %53 ], [ 3, %45 ], [ 0, %51 ], [ 0, %57 ]
  ret i32 %.056
}